target datalayout = "e-m:e-p270:32:32-p271:32:32-p272:64:64-i64:64-i128:128-f80:128-n8:16:32:64-S128"
target triple = "x86_64-pc-linux-gnu"

%struct.SN_env = type { ptr, i32, i32, i32, i32, i32, ptr, ptr }

@s_12 = internal constant [1 x i8] c"a", align 1
@s_13 = internal constant [1 x i8] c"e", align 1

; Function Attrs: nounwind uwtable
define internal i32 @r_R1(ptr noundef %0) #0 {
  %2 = alloca i32, align 4
  %3 = alloca ptr, align 8
  store ptr %0, ptr %3, align 8
  %4 = load ptr, ptr %3, align 8
  %5 = getelementptr inbounds nuw %struct.SN_env, ptr %4, i32 0, i32 7
  %6 = load ptr, ptr %5, align 8
  %7 = getelementptr inbounds i32, ptr %6, i64 0
  %8 = load i32, ptr %7, align 4
  %9 = load ptr, ptr %3, align 8
  %10 = getelementptr inbounds nuw %struct.SN_env, ptr %9, i32 0, i32 1
  %11 = load i32, ptr %10, align 8
  %12 = icmp sle i32 %8, %11
  br i1 %12, label %14, label %13

13:                                               ; preds = %1
  store i32 0, ptr %2, align 4
  br label %15

14:                                               ; preds = %1
  store i32 1, ptr %2, align 4
  br label %15

15:                                               ; preds = %14, %13
  %16 = load i32, ptr %2, align 4
  ret i32 %16
}

; Function Attrs: nounwind uwtable
define internal i32 @r_plur_owner(ptr noundef %0) #0 {
  %2 = alloca i32, align 4
  %3 = alloca ptr, align 8
  %4 = alloca i32, align 4
  %5 = alloca i32, align 4
  %6 = alloca i32, align 4
  %7 = alloca i32, align 4
  %8 = alloca i32, align 4
  %9 = alloca i32, align 4
  store ptr %0, ptr %3, align 8
  call void @llvm.lifetime.start.p0(i64 4, ptr %4) #3
  %10 = load ptr, ptr %3, align 8
  %11 = getelementptr inbounds nuw %struct.SN_env, ptr %10, i32 0, i32 1
  %12 = load i32, ptr %11, align 8
  %13 = load ptr, ptr %3, align 8
  %14 = getelementptr inbounds nuw %struct.SN_env, ptr %13, i32 0, i32 5
  store i32 %12, ptr %14, align 8
  %15 = load ptr, ptr %3, align 8
  %16 = getelementptr inbounds nuw %struct.SN_env, ptr %15, i32 0, i32 1
  %17 = load i32, ptr %16, align 8
  %18 = load ptr, ptr %3, align 8
  %19 = getelementptr inbounds nuw %struct.SN_env, ptr %18, i32 0, i32 3
  %20 = load i32, ptr %19, align 8
  %21 = icmp sle i32 %17, %20
  br i1 %21, label %52, label %22

22:                                               ; preds = %1
  %23 = load ptr, ptr %3, align 8
  %24 = getelementptr inbounds nuw %struct.SN_env, ptr %23, i32 0, i32 0
  %25 = load ptr, ptr %24, align 8
  %26 = load ptr, ptr %3, align 8
  %27 = getelementptr inbounds nuw %struct.SN_env, ptr %26, i32 0, i32 1
  %28 = load i32, ptr %27, align 8
  %29 = sub i32 %28, 1
  %30 = sext i32 %29 to i64
  %31 = getelementptr inbounds i8, ptr %25, i64 %30
  %32 = load i8, ptr %31, align 1
  %33 = zext i8 %32 to i32
  %34 = ashr i32 %33, 5
  %35 = icmp ne i32 %34, 3
  br i1 %35, label %52, label %36

36:                                               ; preds = %22
  %37 = load ptr, ptr %3, align 8
  %38 = getelementptr inbounds nuw %struct.SN_env, ptr %37, i32 0, i32 0
  %39 = load ptr, ptr %38, align 8
  %40 = load ptr, ptr %3, align 8
  %41 = getelementptr inbounds nuw %struct.SN_env, ptr %40, i32 0, i32 1
  %42 = load i32, ptr %41, align 8
  %43 = sub i32 %42, 1
  %44 = sext i32 %43 to i64
  %45 = getelementptr inbounds i8, ptr %39, i64 %44
  %46 = load i8, ptr %45, align 1
  %47 = zext i8 %46 to i32
  %48 = and i32 %47, 31
  %49 = ashr i32 10768, %48
  %50 = and i32 %49, 1
  %51 = icmp ne i32 %50, 0
  br i1 %51, label %53, label %52

52:                                               ; preds = %36, %22, %1
  store i32 0, ptr %2, align 4
  store i32 1, ptr %5, align 4
  br label %110

53:                                               ; preds = %36
  %54 = load ptr, ptr %3, align 8
  %55 = call i32 @find_among_b(ptr noundef %54, ptr noundef @a_11, i32 noundef 42)
  store i32 %55, ptr %4, align 4
  %56 = load i32, ptr %4, align 4
  %57 = icmp ne i32 %56, 0
  br i1 %57, label %59, label %58

58:                                               ; preds = %53
  store i32 0, ptr %2, align 4
  store i32 1, ptr %5, align 4
  br label %110

59:                                               ; preds = %53
  %60 = load ptr, ptr %3, align 8
  %61 = getelementptr inbounds nuw %struct.SN_env, ptr %60, i32 0, i32 1
  %62 = load i32, ptr %61, align 8
  %63 = load ptr, ptr %3, align 8
  %64 = getelementptr inbounds nuw %struct.SN_env, ptr %63, i32 0, i32 4
  store i32 %62, ptr %64, align 4
  call void @llvm.lifetime.start.p0(i64 4, ptr %6) #3
  %65 = load ptr, ptr %3, align 8
  %66 = call i32 @r_R1(ptr noundef %65)
  store i32 %66, ptr %6, align 4
  %67 = load i32, ptr %6, align 4
  %68 = icmp sle i32 %67, 0
  br i1 %68, label %69, label %71

69:                                               ; preds = %59
  %70 = load i32, ptr %6, align 4
  store i32 %70, ptr %2, align 4
  store i32 1, ptr %5, align 4
  br label %72

71:                                               ; preds = %59
  store i32 0, ptr %5, align 4
  br label %72

72:                                               ; preds = %71, %69
  call void @llvm.lifetime.end.p0(i64 4, ptr %6) #3
  %73 = load i32, ptr %5, align 4
  switch i32 %73, label %110 [
    i32 0, label %74
  ]

74:                                               ; preds = %72
  %75 = load i32, ptr %4, align 4
  switch i32 %75, label %109 [
    i32 1, label %76
    i32 2, label %87
    i32 3, label %98
  ]

76:                                               ; preds = %74
  call void @llvm.lifetime.start.p0(i64 4, ptr %7) #3
  %77 = load ptr, ptr %3, align 8
  %78 = call i32 @slice_del(ptr noundef %77)
  store i32 %78, ptr %7, align 4
  %79 = load i32, ptr %7, align 4
  %80 = icmp slt i32 %79, 0
  br i1 %80, label %81, label %83

81:                                               ; preds = %76
  %82 = load i32, ptr %7, align 4
  store i32 %82, ptr %2, align 4
  store i32 1, ptr %5, align 4
  br label %84

83:                                               ; preds = %76
  store i32 0, ptr %5, align 4
  br label %84

84:                                               ; preds = %83, %81
  call void @llvm.lifetime.end.p0(i64 4, ptr %7) #3
  %85 = load i32, ptr %5, align 4
  switch i32 %85, label %110 [
    i32 0, label %86
  ]

86:                                               ; preds = %84
  br label %109

87:                                               ; preds = %74
  call void @llvm.lifetime.start.p0(i64 4, ptr %8) #3
  %88 = load ptr, ptr %3, align 8
  %89 = call i32 @slice_from_s(ptr noundef %88, i32 noundef 1, ptr noundef @s_12)
  store i32 %89, ptr %8, align 4
  %90 = load i32, ptr %8, align 4
  %91 = icmp slt i32 %90, 0
  br i1 %91, label %92, label %94

92:                                               ; preds = %87
  %93 = load i32, ptr %8, align 4
  store i32 %93, ptr %2, align 4
  store i32 1, ptr %5, align 4
  br label %95

94:                                               ; preds = %87
  store i32 0, ptr %5, align 4
  br label %95

95:                                               ; preds = %94, %92
  call void @llvm.lifetime.end.p0(i64 4, ptr %8) #3
  %96 = load i32, ptr %5, align 4
  switch i32 %96, label %110 [
    i32 0, label %97
  ]

97:                                               ; preds = %95
  br label %109

98:                                               ; preds = %74
  call void @llvm.lifetime.start.p0(i64 4, ptr %9) #3
  %99 = load ptr, ptr %3, align 8
  %100 = call i32 @slice_from_s(ptr noundef %99, i32 noundef 1, ptr noundef @s_13)
  store i32 %100, ptr %9, align 4
  %101 = load i32, ptr %9, align 4
  %102 = icmp slt i32 %101, 0
  br i1 %102, label %103, label %105

103:                                              ; preds = %98
  %104 = load i32, ptr %9, align 4
  store i32 %104, ptr %2, align 4
  store i32 1, ptr %5, align 4
  br label %106

105:                                              ; preds = %98
  store i32 0, ptr %5, align 4
  br label %106

106:                                              ; preds = %105, %103
  call void @llvm.lifetime.end.p0(i64 4, ptr %9) #3
  %107 = load i32, ptr %5, align 4
  switch i32 %107, label %110 [
    i32 0, label %108
  ]

108:                                              ; preds = %106
  br label %109

109:                                              ; preds = %74, %108, %97, %86
  store i32 1, ptr %2, align 4
  store i32 1, ptr %5, align 4
  br label %110

110:                                              ; preds = %109, %106, %95, %84, %72, %58, %52
  call void @llvm.lifetime.end.p0(i64 4, ptr %4) #3
  %111 = load i32, ptr %2, align 4
  ret i32 %111
}