; Function Attrs: nounwind uwtable
define internal fastcc range(i32 -2147483648, 2) i32 @r_plur_owner(ptr noundef initializes((24, 28)) %0) unnamed_addr #0 {
  %2 = getelementptr inbounds nuw i8, ptr %0, i64 8
  %3 = load i32, ptr %2, align 8
  %4 = getelementptr inbounds nuw i8, ptr %0, i64 24
  store i32 %3, ptr %4, align 8
  %5 = getelementptr inbounds nuw i8, ptr %0, i64 16
  %6 = load i32, ptr %5, align 8
  %.not = icmp sgt i32 %3, %6
  br i1 %.not, label %7, label %35

7:                                                ; preds = %1
  %8 = load ptr, ptr %0, align 8
  %9 = sext i32 %3 to i64
  %10 = getelementptr i8, ptr %8, i64 %9
  %11 = getelementptr i8, ptr %10, i64 -1
  %12 = load i8, ptr %11, align 1
  %13 = zext i8 %12 to i32
  %.mask = and i32 %13, 224
  %.not41 = icmp eq i32 %.mask, 96
  br i1 %.not41, label %14, label %35

14:                                               ; preds = %7
  %15 = and i32 %13, 31
  %16 = shl nuw i32 1, %15
  %17 = and i32 %16, 10768
  %.not42 = icmp eq i32 %17, 0
  br i1 %.not42, label %35, label %18

18:                                               ; preds = %14
  %19 = tail call i32 @find_among_b(ptr noundef nonnull %0, ptr noundef nonnull @a_11, i32 noundef 42) #2
  %.not43 = icmp eq i32 %19, 0
  br i1 %.not43, label %35, label %20

20:                                               ; preds = %18
  %21 = load i32, ptr %2, align 8
  %22 = getelementptr inbounds nuw i8, ptr %0, i64 20
  store i32 %21, ptr %22, align 4
  %23 = getelementptr i8, ptr %0, i64 40
  %.val47 = load ptr, ptr %23, align 8
  %.val47.val = load i32, ptr %.val47, align 4
  %.not.i.not = icmp sgt i32 %.val47.val, %21
  br i1 %.not.i.not, label %35, label %24

24:                                               ; preds = %20
  switch i32 %19, label %34 [
    i32 1, label %25
    i32 2, label %28
    i32 3, label %31
  ]

25:                                               ; preds = %24
  %26 = tail call i32 @slice_del(ptr noundef nonnull %0) #2
  %27 = icmp sgt i32 %26, -1
  br i1 %27, label %34, label %35

28:                                               ; preds = %24
  %29 = tail call i32 @slice_from_s(ptr noundef nonnull %0, i32 noundef 1, ptr noundef nonnull @s_12) #2
  %30 = icmp sgt i32 %29, -1
  br i1 %30, label %34, label %35

31:                                               ; preds = %24
  %32 = tail call i32 @slice_from_s(ptr noundef nonnull %0, i32 noundef 1, ptr noundef nonnull @s_13) #2
  %33 = icmp sgt i32 %32, -1
  br i1 %33, label %34, label %35

34:                                               ; preds = %31, %28, %25, %24
  br label %35

35:                                               ; preds = %18, %1, %7, %14, %25, %28, %31, %20, %34
  %.0 = phi i32 [ 1, %34 ], [ %32, %31 ], [ %29, %28 ], [ %26, %25 ], [ 0, %20 ], [ 0, %14 ], [ 0, %7 ], [ 0, %1 ], [ 0, %18 ]
  ret i32 %.0
}